; Function Attrs: mustprogress nofree norecurse nosync nounwind memory(read, inaccessiblemem: write) uwtable
define hidden noundef i32 @_ZNK6hermes9Parameter19getIndexInParamListEv(ptr noundef nonnull readonly align 8 dereferenceable(56) %this) local_unnamed_addr #13 align 2 {
entry:
  %Parent = getelementptr inbounds i8, ptr %this, i64 40
  %0 = load ptr, ptr %Parent, align 8
  %Parameters.i = getelementptr inbounds i8, ptr %0, i64 96
  %1 = load ptr, ptr %Parameters.i, align 8
  %Size.i = getelementptr inbounds i8, ptr %0, i64 104
  %2 = load i32, ptr %Size.i, align 8
  %conv.i = zext i32 %2 to i64
  %add.ptr.i = getelementptr inbounds ptr, ptr %1, i64 %conv.i
  %cmp5 = icmp ne i32 %2, 0
  tail call void @llvm.assume(i1 %cmp5)
  %3 = load ptr, ptr %1, align 8
  %cmp46 = icmp eq ptr %3, %this
  br i1 %cmp46, label %if.then, label %if.end

if.then:                                          ; preds = %if.end, %entry
  %index.0.lcssa = phi i32 [ 0, %entry ], [ %inc, %if.end ]
  ret i32 %index.0.lcssa

if.end:                                           ; preds = %entry, %if.end
  %index.08 = phi i32 [ %inc, %if.end ], [ 0, %entry ]
  %__begin1.07 = phi ptr [ %incdec.ptr, %if.end ], [ %1, %entry ]
  %inc = add nuw nsw i32 %index.08, 1
  %incdec.ptr = getelementptr inbounds i8, ptr %__begin1.07, i64 8
  %cmp = icmp ne ptr %incdec.ptr, %add.ptr.i
  tail call void @llvm.assume(i1 %cmp)
  %4 = load ptr, ptr %incdec.ptr, align 8
  %cmp4 = icmp eq ptr %4, %this
  br i1 %cmp4, label %if.then, label %if.end
}